; Function Attrs: mustprogress uwtable
define hidden void @_ZN19OpenColorIO_v2_4dev18FormatMetadataImpl15addChildElementEPKcS2_(ptr noundef nonnull align 8 dereferenceable(120) %this, ptr noundef %name, ptr noundef %value) unnamed_addr #0 align 2 personality ptr @__gxx_personality_v0 {
entry:
  %nameStr = alloca %"class.std::__cxx11::basic_string", align 8
  %ref.tmp = alloca %"class.std::allocator", align 1
  %ref.tmp4 = alloca ptr, align 8
  %tobool.not = icmp eq ptr %name, null
  %cond = select i1 %tobool.not, ptr @.str.12, ptr %name
  call void @_ZNSaIcEC1Ev(ptr noundef nonnull align 1 dereferenceable(1) %ref.tmp) #17
  invoke void @_ZNSt7__cxx1112basic_stringIcSt11char_traitsIcESaIcEEC1EPKcRKS3_(ptr noundef nonnull align 8 dereferenceable(32) %nameStr, ptr noundef nonnull %cond, ptr noundef nonnull align 1 dereferenceable(1) %ref.tmp)
          to label %invoke.cont unwind label %lpad

invoke.cont:                                      ; preds = %entry
  call void @_ZNSaIcED1Ev(ptr noundef nonnull align 1 dereferenceable(1) %ref.tmp) #17
  invoke void @_ZN19OpenColorIO_v2_4dev18FormatMetadataImpl19ValidateElementNameERKNSt7__cxx1112basic_stringIcSt11char_traitsIcESaIcEEE(ptr noundef nonnull align 8 dereferenceable(32) %nameStr)
          to label %invoke.cont3 unwind label %lpad2

invoke.cont3:                                     ; preds = %invoke.cont
  %m_elements = getelementptr inbounds i8, ptr %this, i64 96
  %tobool5.not = icmp eq ptr %value, null
  %cond9 = select i1 %tobool5.not, ptr @.str.12, ptr %value
  store ptr %cond9, ptr %ref.tmp4, align 8
  invoke void @_ZNSt6vectorIN19OpenColorIO_v2_4dev18FormatMetadataImplESaIS1_EE12emplace_backIJRNSt7__cxx1112basic_stringIcSt11char_traitsIcESaIcEEEPKcEEEvDpOT_(ptr noundef nonnull align 8 dereferenceable(24) %m_elements, ptr noundef nonnull align 8 dereferenceable(32) %nameStr, ptr noundef nonnull align 8 dereferenceable(8) %ref.tmp4)
          to label %invoke.cont10 unwind label %lpad2

invoke.cont10:                                    ; preds = %invoke.cont3
  call void @_ZNSt7__cxx1112basic_stringIcSt11char_traitsIcESaIcEED1Ev(ptr noundef nonnull align 8 dereferenceable(32) %nameStr) #17
  ret void

lpad:                                             ; preds = %entry
  %0 = landingpad { ptr, i32 }
          cleanup
  call void @_ZNSaIcED1Ev(ptr noundef nonnull align 1 dereferenceable(1) %ref.tmp) #17
  br label %eh.resume

lpad2:                                            ; preds = %invoke.cont3, %invoke.cont
  %1 = landingpad { ptr, i32 }
          cleanup
  call void @_ZNSt7__cxx1112basic_stringIcSt11char_traitsIcESaIcEED1Ev(ptr noundef nonnull align 8 dereferenceable(32) %nameStr) #17
  br label %eh.resume

eh.resume:                                        ; preds = %lpad2, %lpad
  %.pn = phi { ptr, i32 } [ %1, %lpad2 ], [ %0, %lpad ]
  resume { ptr, i32 } %.pn
}